; ModuleID = '14/1461.c'
source_filename = "14/1461.c"
target datalayout = "e-m:e-p270:32:32-p271:32:32-p272:64:64-i64:64-f80:128-n8:16:32:64-S128"
target triple = "x86_64-pc-linux-gnu"

%struct.student = type { i32, i32, i32, i32 }

@.str = private unnamed_addr constant [3 x i8] c"%d\00", align 1
@.str.1 = private unnamed_addr constant [7 x i8] c"%d%d%d\00", align 1
@stu = common dso_local global [100 x %struct.student] zeroinitializer, align 16
@temp = common dso_local global %struct.student zeroinitializer, align 4
@.str.2 = private unnamed_addr constant [7 x i8] c"%d %d\0A\00", align 1

; Function Attrs: noinline nounwind uwtable
define dso_local void @main() #0 {
  %1 = alloca i32, align 4
  %2 = alloca i32, align 4
  %3 = alloca i32, align 4
  %4 = call i32 (i8*, ...) @__isoc99_scanf(i8* getelementptr inbounds ([3 x i8], [3 x i8]* @.str, i64 0, i64 0), i32* %1)
  store i32 0, i32* %2, align 4
  br label %5

5:                                                ; preds = %38, %0
  %6 = load i32, i32* %2, align 4
  %7 = load i32, i32* %1, align 4
  %8 = icmp slt i32 %6, %7
  br i1 %8, label %9, label %41

9:                                                ; preds = %5
  %10 = load i32, i32* %2, align 4
  %11 = sext i32 %10 to i64
  %12 = getelementptr inbounds [100 x %struct.student], [100 x %struct.student]* @stu, i64 0, i64 %11
  %13 = getelementptr inbounds %struct.student, %struct.student* %12, i32 0, i32 0
  %14 = load i32, i32* %2, align 4
  %15 = sext i32 %14 to i64
  %16 = getelementptr inbounds [100 x %struct.student], [100 x %struct.student]* @stu, i64 0, i64 %15
  %17 = getelementptr inbounds %struct.student, %struct.student* %16, i32 0, i32 1
  %18 = load i32, i32* %2, align 4
  %19 = sext i32 %18 to i64
  %20 = getelementptr inbounds [100 x %struct.student], [100 x %struct.student]* @stu, i64 0, i64 %19
  %21 = getelementptr inbounds %struct.student, %struct.student* %20, i32 0, i32 2
  %22 = call i32 (i8*, ...) @__isoc99_scanf(i8* getelementptr inbounds ([7 x i8], [7 x i8]* @.str.1, i64 0, i64 0), i32* %13, i32* %17, i32* %21)
  %23 = load i32, i32* %2, align 4
  %24 = sext i32 %23 to i64
  %25 = getelementptr inbounds [100 x %struct.student], [100 x %struct.student]* @stu, i64 0, i64 %24
  %26 = getelementptr inbounds %struct.student, %struct.student* %25, i32 0, i32 1
  %27 = load i32, i32* %26, align 4
  %28 = load i32, i32* %2, align 4
  %29 = sext i32 %28 to i64
  %30 = getelementptr inbounds [100 x %struct.student], [100 x %struct.student]* @stu, i64 0, i64 %29
  %31 = getelementptr inbounds %struct.student, %struct.student* %30, i32 0, i32 2
  %32 = load i32, i32* %31, align 8
  %33 = add nsw i32 %27, %32
  %34 = load i32, i32* %2, align 4
  %35 = sext i32 %34 to i64
  %36 = getelementptr inbounds [100 x %struct.student], [100 x %struct.student]* @stu, i64 0, i64 %35
  %37 = getelementptr inbounds %struct.student, %struct.student* %36, i32 0, i32 3
  store i32 %33, i32* %37, align 4
  br label %38

38:                                               ; preds = %9
  %39 = load i32, i32* %2, align 4
  %40 = add nsw i32 %39, 1
  store i32 %40, i32* %2, align 4
  br label %5

41:                                               ; preds = %5
  store i32 1, i32* %3, align 4
  br label %42

42:                                               ; preds = %89, %41
  %43 = load i32, i32* %3, align 4
  %44 = icmp slt i32 %43, 4
  br i1 %44, label %45, label %92

45:                                               ; preds = %42
  store i32 0, i32* %2, align 4
  br label %46

46:                                               ; preds = %85, %45
  %47 = load i32, i32* %2, align 4
  %48 = load i32, i32* %1, align 4
  %49 = load i32, i32* %3, align 4
  %50 = sub nsw i32 %48, %49
  %51 = icmp slt i32 %47, %50
  br i1 %51, label %52, label %88

52:                                               ; preds = %46
  %53 = load i32, i32* %2, align 4
  %54 = sext i32 %53 to i64
  %55 = getelementptr inbounds [100 x %struct.student], [100 x %struct.student]* @stu, i64 0, i64 %54
  %56 = getelementptr inbounds %struct.student, %struct.student* %55, i32 0, i32 3
  %57 = load i32, i32* %56, align 4
  %58 = load i32, i32* %2, align 4
  %59 = add nsw i32 %58, 1
  %60 = sext i32 %59 to i64
  %61 = getelementptr inbounds [100 x %struct.student], [100 x %struct.student]* @stu, i64 0, i64 %60
  %62 = getelementptr inbounds %struct.student, %struct.student* %61, i32 0, i32 3
  %63 = load i32, i32* %62, align 4
  %64 = icmp sge i32 %57, %63
  br i1 %64, label %65, label %84

65:                                               ; preds = %52
  %66 = load i32, i32* %2, align 4
  %67 = add nsw i32 %66, 1
  %68 = sext i32 %67 to i64
  %69 = getelementptr inbounds [100 x %struct.student], [100 x %struct.student]* @stu, i64 0, i64 %68
  %70 = bitcast %struct.student* %69 to i8*
  call void @llvm.memcpy.p0i8.p0i8.i64(i8* align 4 bitcast (%struct.student* @temp to i8*), i8* align 16 %70, i64 16, i1 false)
  %71 = load i32, i32* %2, align 4
  %72 = add nsw i32 %71, 1
  %73 = sext i32 %72 to i64
  %74 = getelementptr inbounds [100 x %struct.student], [100 x %struct.student]* @stu, i64 0, i64 %73
  %75 = load i32, i32* %2, align 4
  %76 = sext i32 %75 to i64
  %77 = getelementptr inbounds [100 x %struct.student], [100 x %struct.student]* @stu, i64 0, i64 %76
  %78 = bitcast %struct.student* %74 to i8*
  %79 = bitcast %struct.student* %77 to i8*
  call void @llvm.memcpy.p0i8.p0i8.i64(i8* align 16 %78, i8* align 16 %79, i64 16, i1 false)
  %80 = load i32, i32* %2, align 4
  %81 = sext i32 %80 to i64
  %82 = getelementptr inbounds [100 x %struct.student], [100 x %struct.student]* @stu, i64 0, i64 %81
  %83 = bitcast %struct.student* %82 to i8*
  call void @llvm.memcpy.p0i8.p0i8.i64(i8* align 16 %83, i8* align 4 bitcast (%struct.student* @temp to i8*), i64 16, i1 false)
  br label %84

84:                                               ; preds = %65, %52
  br label %85

85:                                               ; preds = %84
  %86 = load i32, i32* %2, align 4
  %87 = add nsw i32 %86, 1
  store i32 %87, i32* %2, align 4
  br label %46

88:                                               ; preds = %46
  br label %89

89:                                               ; preds = %88
  %90 = load i32, i32* %3, align 4
  %91 = add nsw i32 %90, 1
  store i32 %91, i32* %3, align 4
  br label %42

92:                                               ; preds = %42
  %93 = load i32, i32* %1, align 4
  %94 = sub nsw i32 %93, 1
  store i32 %94, i32* %2, align 4
  br label %95

95:                                               ; preds = %112, %92
  %96 = load i32, i32* %2, align 4
  %97 = load i32, i32* %1, align 4
  %98 = sub nsw i32 %97, 4
  %99 = icmp sgt i32 %96, %98
  br i1 %99, label %100, label %115

100:                                              ; preds = %95
  %101 = load i32, i32* %2, align 4
  %102 = sext i32 %101 to i64
  %103 = getelementptr inbounds [100 x %struct.student], [100 x %struct.student]* @stu, i64 0, i64 %102
  %104 = getelementptr inbounds %struct.student, %struct.student* %103, i32 0, i32 0
  %105 = load i32, i32* %104, align 16
  %106 = load i32, i32* %2, align 4
  %107 = sext i32 %106 to i64
  %108 = getelementptr inbounds [100 x %struct.student], [100 x %struct.student]* @stu, i64 0, i64 %107
  %109 = getelementptr inbounds %struct.student, %struct.student* %108, i32 0, i32 3
  %110 = load i32, i32* %109, align 4
  %111 = call i32 (i8*, ...) @printf(i8* getelementptr inbounds ([7 x i8], [7 x i8]* @.str.2, i64 0, i64 0), i32 %105, i32 %110)
  br label %112

112:                                              ; preds = %100
  %113 = load i32, i32* %2, align 4
  %114 = add nsw i32 %113, -1
  store i32 %114, i32* %2, align 4
  br label %95

115:                                              ; preds = %95
  ret void
}

declare dso_local i32 @__isoc99_scanf(i8*, ...) #1

; Function Attrs: argmemonly nounwind willreturn
declare void @llvm.memcpy.p0i8.p0i8.i64(i8* noalias nocapture writeonly, i8* noalias nocapture readonly, i64, i1 immarg) #2

declare dso_local i32 @printf(i8*, ...) #1


!llvm.module.flags = !{!0}
!llvm.ident = !{!1}

!0 = !{i32 1, !"wchar_size", i32 4}
!1 = !{!"clang version 10.0.0-4ubuntu1 "}
