; ModuleID = 'source-C-CXX/13/1461.c'
source_filename = "source-C-CXX/13/1461.c"
target datalayout = "e-m:e-p270:32:32-p271:32:32-p272:64:64-i64:64-f80:128-n8:16:32:64-S128"
target triple = "x86_64-pc-linux-gnu"

%struct.student = type { i32, i32, i32, i32 }

@.str = private unnamed_addr constant [3 x i8] c"%d\00", align 1
@.str.1 = private unnamed_addr constant [7 x i8] c"%d%d%d\00", align 1
@stu = dso_local global [100 x %struct.student] zeroinitializer, align 16
@temp = dso_local local_unnamed_addr global %struct.student zeroinitializer, align 4
@.str.2 = private unnamed_addr constant [7 x i8] c"%d %d\0A\00", align 1

; Function Attrs: nofree nounwind sspstrong uwtable
define dso_local void @main() local_unnamed_addr #0 {
  %1 = alloca i32, align 4
  %2 = bitcast i32* %1 to i8*
  call void @llvm.lifetime.start.p0i8(i64 4, i8* nonnull %2) #4
  %3 = call i32 (i8*, ...) @__isoc99_scanf(i8* getelementptr inbounds ([3 x i8], [3 x i8]* @.str, i64 0, i64 0), i32* nonnull %1)
  %4 = load i32, i32* %1, align 4, !tbaa !5
  %5 = icmp sgt i32 %4, 0
  br i1 %5, label %8, label %25

6:                                                ; preds = %8
  %7 = icmp sgt i32 %19, 1
  br i1 %7, label %22, label %25

8:                                                ; preds = %0, %8
  %9 = phi i64 [ %18, %8 ], [ 0, %0 ]
  %10 = getelementptr inbounds [100 x %struct.student], [100 x %struct.student]* @stu, i64 0, i64 %9, i32 0
  %11 = getelementptr inbounds [100 x %struct.student], [100 x %struct.student]* @stu, i64 0, i64 %9, i32 1
  %12 = getelementptr inbounds [100 x %struct.student], [100 x %struct.student]* @stu, i64 0, i64 %9, i32 2
  %13 = call i32 (i8*, ...) @__isoc99_scanf(i8* getelementptr inbounds ([7 x i8], [7 x i8]* @.str.1, i64 0, i64 0), i32* nonnull %10, i32* nonnull %11, i32* nonnull %12)
  %14 = load i32, i32* %11, align 4, !tbaa !9
  %15 = load i32, i32* %12, align 8, !tbaa !11
  %16 = add nsw i32 %15, %14
  %17 = getelementptr inbounds [100 x %struct.student], [100 x %struct.student]* @stu, i64 0, i64 %9, i32 3
  store i32 %16, i32* %17, align 4, !tbaa !12
  %18 = add nuw nsw i64 %9, 1
  %19 = load i32, i32* %1, align 4, !tbaa !5
  %20 = sext i32 %19 to i64
  %21 = icmp slt i64 %18, %20
  br i1 %21, label %8, label %6, !llvm.loop !13

22:                                               ; preds = %6
  %23 = add nsw i32 %19, -1
  %24 = zext i32 %23 to i64
  br label %28

25:                                               ; preds = %94, %0, %6, %43, %76
  %26 = phi i32 [ %19, %76 ], [ %19, %43 ], [ %19, %6 ], [ %4, %0 ], [ %19, %94 ]
  %27 = sext i32 %26 to i64
  br label %45

28:                                               ; preds = %22, %41
  %29 = phi i64 [ 0, %22 ], [ %32, %41 ]
  %30 = getelementptr inbounds [100 x %struct.student], [100 x %struct.student]* @stu, i64 0, i64 %29, i32 3
  %31 = load i32, i32* %30, align 4, !tbaa !12
  %32 = add nuw nsw i64 %29, 1
  %33 = getelementptr inbounds [100 x %struct.student], [100 x %struct.student]* @stu, i64 0, i64 %32, i32 3
  %34 = load i32, i32* %33, align 4, !tbaa !12
  %35 = icmp slt i32 %31, %34
  br i1 %35, label %41, label %36

36:                                               ; preds = %28
  %37 = getelementptr inbounds [100 x %struct.student], [100 x %struct.student]* @stu, i64 0, i64 %32
  %38 = getelementptr inbounds [100 x %struct.student], [100 x %struct.student]* @stu, i64 0, i64 %29
  %39 = bitcast %struct.student* %37 to i8*
  call void @llvm.memcpy.p0i8.p0i8.i64(i8* noundef nonnull align 4 dereferenceable(16) bitcast (%struct.student* @temp to i8*), i8* noundef nonnull align 16 dereferenceable(16) %39, i64 16, i1 false), !tbaa.struct !15
  %40 = bitcast %struct.student* %38 to i8*
  call void @llvm.memcpy.p0i8.p0i8.i64(i8* noundef nonnull align 16 dereferenceable(16) %39, i8* noundef nonnull align 16 dereferenceable(16) %40, i64 16, i1 false), !tbaa.struct !15
  call void @llvm.memcpy.p0i8.p0i8.i64(i8* noundef nonnull align 16 dereferenceable(16) %40, i8* noundef nonnull align 4 dereferenceable(16) bitcast (%struct.student* @temp to i8*), i64 16, i1 false), !tbaa.struct !15
  br label %41

41:                                               ; preds = %28, %36
  %42 = icmp eq i64 %32, %24
  br i1 %42, label %43, label %28, !llvm.loop !16

43:                                               ; preds = %41
  %44 = icmp sgt i32 %19, 2
  br i1 %44, label %58, label %25

45:                                               ; preds = %25, %45
  %46 = phi i64 [ %27, %25 ], [ %47, %45 ]
  %47 = add nsw i64 %46, -1
  %48 = getelementptr inbounds [100 x %struct.student], [100 x %struct.student]* @stu, i64 0, i64 %47, i32 0
  %49 = load i32, i32* %48, align 16, !tbaa !17
  %50 = getelementptr inbounds [100 x %struct.student], [100 x %struct.student]* @stu, i64 0, i64 %47, i32 3
  %51 = load i32, i32* %50, align 4, !tbaa !12
  %52 = call i32 (i8*, ...) @printf(i8* nonnull dereferenceable(1) getelementptr inbounds ([7 x i8], [7 x i8]* @.str.2, i64 0, i64 0), i32 %49, i32 %51)
  %53 = load i32, i32* %1, align 4, !tbaa !5
  %54 = add nsw i32 %53, -2
  %55 = sext i32 %54 to i64
  %56 = icmp sgt i64 %46, %55
  br i1 %56, label %45, label %57, !llvm.loop !18

57:                                               ; preds = %45
  call void @llvm.lifetime.end.p0i8(i64 4, i8* nonnull %2) #4
  ret void

58:                                               ; preds = %43
  %59 = add nsw i32 %19, -2
  %60 = zext i32 %59 to i64
  br label %61

61:                                               ; preds = %74, %58
  %62 = phi i64 [ 0, %58 ], [ %65, %74 ]
  %63 = getelementptr inbounds [100 x %struct.student], [100 x %struct.student]* @stu, i64 0, i64 %62, i32 3
  %64 = load i32, i32* %63, align 4, !tbaa !12
  %65 = add nuw nsw i64 %62, 1
  %66 = getelementptr inbounds [100 x %struct.student], [100 x %struct.student]* @stu, i64 0, i64 %65, i32 3
  %67 = load i32, i32* %66, align 4, !tbaa !12
  %68 = icmp slt i32 %64, %67
  br i1 %68, label %74, label %69

69:                                               ; preds = %61
  %70 = getelementptr inbounds [100 x %struct.student], [100 x %struct.student]* @stu, i64 0, i64 %65
  %71 = getelementptr inbounds [100 x %struct.student], [100 x %struct.student]* @stu, i64 0, i64 %62
  %72 = bitcast %struct.student* %70 to i8*
  call void @llvm.memcpy.p0i8.p0i8.i64(i8* noundef nonnull align 4 dereferenceable(16) bitcast (%struct.student* @temp to i8*), i8* noundef nonnull align 16 dereferenceable(16) %72, i64 16, i1 false), !tbaa.struct !15
  %73 = bitcast %struct.student* %71 to i8*
  call void @llvm.memcpy.p0i8.p0i8.i64(i8* noundef nonnull align 16 dereferenceable(16) %72, i8* noundef nonnull align 16 dereferenceable(16) %73, i64 16, i1 false), !tbaa.struct !15
  call void @llvm.memcpy.p0i8.p0i8.i64(i8* noundef nonnull align 16 dereferenceable(16) %73, i8* noundef nonnull align 4 dereferenceable(16) bitcast (%struct.student* @temp to i8*), i64 16, i1 false), !tbaa.struct !15
  br label %74

74:                                               ; preds = %69, %61
  %75 = icmp eq i64 %65, %60
  br i1 %75, label %76, label %61, !llvm.loop !16

76:                                               ; preds = %74
  %77 = icmp sgt i32 %19, 3
  br i1 %77, label %78, label %25

78:                                               ; preds = %76
  %79 = add nsw i32 %19, -3
  %80 = zext i32 %79 to i64
  br label %81

81:                                               ; preds = %94, %78
  %82 = phi i64 [ 0, %78 ], [ %85, %94 ]
  %83 = getelementptr inbounds [100 x %struct.student], [100 x %struct.student]* @stu, i64 0, i64 %82, i32 3
  %84 = load i32, i32* %83, align 4, !tbaa !12
  %85 = add nuw nsw i64 %82, 1
  %86 = getelementptr inbounds [100 x %struct.student], [100 x %struct.student]* @stu, i64 0, i64 %85, i32 3
  %87 = load i32, i32* %86, align 4, !tbaa !12
  %88 = icmp slt i32 %84, %87
  br i1 %88, label %94, label %89

89:                                               ; preds = %81
  %90 = getelementptr inbounds [100 x %struct.student], [100 x %struct.student]* @stu, i64 0, i64 %85
  %91 = getelementptr inbounds [100 x %struct.student], [100 x %struct.student]* @stu, i64 0, i64 %82
  %92 = bitcast %struct.student* %90 to i8*
  call void @llvm.memcpy.p0i8.p0i8.i64(i8* noundef nonnull align 4 dereferenceable(16) bitcast (%struct.student* @temp to i8*), i8* noundef nonnull align 16 dereferenceable(16) %92, i64 16, i1 false), !tbaa.struct !15
  %93 = bitcast %struct.student* %91 to i8*
  call void @llvm.memcpy.p0i8.p0i8.i64(i8* noundef nonnull align 16 dereferenceable(16) %92, i8* noundef nonnull align 16 dereferenceable(16) %93, i64 16, i1 false), !tbaa.struct !15
  call void @llvm.memcpy.p0i8.p0i8.i64(i8* noundef nonnull align 16 dereferenceable(16) %93, i8* noundef nonnull align 4 dereferenceable(16) bitcast (%struct.student* @temp to i8*), i64 16, i1 false), !tbaa.struct !15
  br label %94

94:                                               ; preds = %89, %81
  %95 = icmp eq i64 %85, %80
  br i1 %95, label %25, label %81, !llvm.loop !16
}

; Function Attrs: argmemonly mustprogress nofree nosync nounwind willreturn
declare void @llvm.lifetime.start.p0i8(i64 immarg, i8* nocapture) #1

; Function Attrs: nofree nounwind
declare noundef i32 @__isoc99_scanf(i8* nocapture noundef readonly, ...) local_unnamed_addr #2

; Function Attrs: argmemonly mustprogress nofree nounwind willreturn
declare void @llvm.memcpy.p0i8.p0i8.i64(i8* noalias nocapture writeonly, i8* noalias nocapture readonly, i64, i1 immarg) #3

; Function Attrs: nofree nounwind
declare noundef i32 @printf(i8* nocapture noundef readonly, ...) local_unnamed_addr #2

; Function Attrs: argmemonly mustprogress nofree nosync nounwind willreturn
declare void @llvm.lifetime.end.p0i8(i64 immarg, i8* nocapture) #1


!llvm.module.flags = !{!0, !1, !2, !3}
!llvm.ident = !{!4}

!0 = !{i32 1, !"wchar_size", i32 4}
!1 = !{i32 7, !"PIC Level", i32 2}
!2 = !{i32 7, !"PIE Level", i32 2}
!3 = !{i32 7, !"uwtable", i32 1}
!4 = !{!"clang version 13.0.0"}
!5 = !{!6, !6, i64 0}
!6 = !{!"int", !7, i64 0}
!7 = !{!"omnipotent char", !8, i64 0}
!8 = !{!"Simple C/C++ TBAA"}
!9 = !{!10, !6, i64 4}
!10 = !{!"student", !6, i64 0, !6, i64 4, !6, i64 8, !6, i64 12}
!11 = !{!10, !6, i64 8}
!12 = !{!10, !6, i64 12}
!13 = distinct !{!13, !14}
!14 = !{!"llvm.loop.mustprogress"}
!15 = !{i64 0, i64 4, !5, i64 4, i64 4, !5, i64 8, i64 4, !5, i64 12, i64 4, !5}
!16 = distinct !{!16, !14}
!17 = !{!10, !6, i64 0}
!18 = distinct !{!18, !14}
